Certificate:
    Data:
        Version: 3 (0x2)
        Serial Number:
            c7:38:74:d8:3f:12:2c:04
    Signature Algorithm: sha256WithRSAEncryption
        Issuer: C=IT, ST=Florence, O=Organization, OU=Unit, CN=Organization/emailAddress=ca@organization.email
        Validity
            Not Before: Dec 13 10:20:38 2019 GMT
            Not After : Mar 17 10:20:38 2022 GMT
        Subject: C=IT, ST=Florence, O=Organization, OU=Unit, CN=iotobsf/emailAddress=your@server.email
        Subject Public Key Info:
            Public Key Algorithm: rsaEncryption
                Public-Key: (4096 bit)
                Modulus:
                    00:dd:a6:c0:62:d4:0a:fa:53:c4:55:4c:c6:e6:4e:
                    96:8c:0a:8d:19:20:bc:40:ce:e8:07:be:06:e2:31:
                    47:64:92:90:06:f1:ff:dd:f4:0e:cb:e9:7d:93:80:
                    2a:f7:bd:dd:e3:a9:b3:f1:c7:5a:44:8f:97:8d:b1:
                    77:41:2d:c5:cf:23:2a:9b:0c:0b:6d:d3:af:e1:aa:
                    e1:55:4e:b2:c3:37:3d:ea:2b:5b:59:d2:74:00:63:
                    4d:10:5d:1b:ce:b0:b7:20:95:d4:a7:24:85:eb:38:
                    b1:d2:f3:36:79:8d:6d:8a:f0:67:b9:4d:eb:a0:10:
                    25:8d:0f:60:57:d7:87:8b:4b:26:5d:26:14:e4:fc:
                    7b:dd:56:66:09:e9:55:c0:93:a4:80:17:cc:6d:76:
                    a8:3a:33:16:38:ca:9f:16:63:a8:3a:49:c6:c5:85:
                    4c:9e:64:62:00:6a:dd:6f:32:fb:8f:f0:b8:3b:ac:
                    3f:c2:40:0d:b9:28:fa:90:96:c8:94:f4:32:d8:9e:
                    0e:03:f7:b8:06:5e:9b:4b:d9:3d:03:89:8d:4e:8d:
                    81:03:30:27:5a:e8:10:41:52:86:42:65:98:14:3a:
                    50:4c:fe:59:99:48:30:71:41:80:5f:52:47:e4:1b:
                    78:aa:2f:35:55:2a:2b:3e:78:0d:eb:e7:5c:8e:e7:
                    da:89:a9:4a:f1:1d:67:d5:ba:eb:95:64:47:2c:a7:
                    56:08:eb:51:cb:a9:35:50:dd:b9:1d:4e:10:1c:96:
                    fc:e5:46:69:2e:0b:0e:ef:df:a8:f3:7e:31:70:d1:
                    60:c0:52:91:60:69:43:5d:cf:d2:fa:90:2a:e8:7a:
                    7e:2d:56:40:f6:ac:04:e1:d4:ac:a6:92:4c:14:ea:
                    94:e6:2a:9c:dc:b8:f8:51:42:3d:99:0d:29:1f:b1:
                    f6:a0:4e:ca:4c:94:0a:a7:8d:a8:a9:90:d6:5b:90:
                    47:22:f4:c9:28:97:09:61:5b:d2:25:b3:d7:cb:74:
                    91:1b:80:0a:0a:e8:ad:01:df:94:9f:30:ee:12:ed:
                    b7:f8:4e:d4:3a:ac:a2:05:87:ea:34:0c:32:84:12:
                    4a:65:b3:3e:76:6a:bd:23:33:f4:da:69:30:2c:54:
                    91:30:8a:1d:cc:5b:45:d7:4a:2e:2b:ad:1f:66:4d:
                    01:4e:b9:a7:09:76:e2:1a:8e:28:51:ae:ac:37:e0:
                    69:4f:7f:0b:be:88:58:b1:e7:d1:f4:1b:f1:e3:6d:
                    ff:cf:ba:78:18:63:06:30:2d:03:c3:3b:27:c5:0c:
                    db:f0:23:63:4e:30:42:76:f2:cd:a3:40:bf:06:64:
                    82:70:ff:89:90:46:22:5f:c4:4a:a9:61:89:2f:32:
                    d6:51:59
                Exponent: 65537 (0x10001)
        X509v3 extensions:
            X509v3 Subject Key Identifier: 
                62:36:23:44:9E:A5:51:16:CC:24:3E:CF:CE:0A:AD:AB:FF:FB:0F:BC
            X509v3 Authority Key Identifier: 
                keyid:14:C5:A9:A0:EF:5C:DD:B9:2D:32:E1:07:CB:C4:61:39:40:F1:5B:FD
                DirName:/C=IT/ST=Florence/O=Organization/OU=Unit/CN=Organization/emailAddress=ca@organization.email
                serial:C7:38:74:D8:3F:12:2C:03

            X509v3 Basic Constraints: 
                CA:TRUE
            X509v3 CRL Distribution Points: 

                Full Name:
                  URI:http://dashboard/example_ca.crl

            X509v3 Key Usage: 
                Digital Signature, Non Repudiation, Key Encipherment
            X509v3 Subject Alternative Name: 
                DNS:iotobsf
    Signature Algorithm: sha256WithRSAEncryption
         2c:73:59:0b:d6:22:ce:cf:36:a3:4d:9d:cc:3e:8a:e4:58:64:
         b8:5b:95:7f:8a:a9:83:ef:55:56:63:1a:48:8e:0d:51:10:94:
         45:60:27:f1:02:c1:63:06:39:b9:32:96:ac:53:3d:8e:6a:60:
         40:3a:8f:01:b3:4e:4a:b6:9b:fd:11:91:cf:a5:09:cf:81:1c:
         ac:c7:f3:7e:1e:61:3e:a7:78:c1:fc:46:37:09:64:de:6c:20:
         e0:83:33:cb:32:c9:4b:55:63:8a:37:24:cc:1e:57:00:36:25:
         a2:71:46:ae:c3:1a:a8:50:c0:5b:b0:74:08:92:c5:cd:b5:b4:
         6a:98:ba:56:15:01:f3:e5:37:47:1f:62:d3:c8:49:b7:bb:76:
         36:a7:e8:a4:81:1a:36:21:5d:b4:c8:eb:89:cf:23:63:ed:c8:
         f6:e2:a4:69:69:9b:58:0c:a4:e2:b6:05:5d:78:db:f4:9c:82:
         58:46:86:29:09:91:0d:8d:ee:2b:42:55:1b:b1:7e:be:1d:b7:
         ac:b8:3e:aa:69:d0:92:42:bf:23:bf:90:26:9e:7d:17:2f:36:
         eb:d9:be:ee:59:e5:bf:11:51:88:ac:4c:09:8d:2e:d0:15:e4:
         d9:16:c1:8d:53:1a:b1:1e:41:7f:97:f8:0d:8a:e6:21:bd:5c:
         be:89:8d:8b:c0:c1:fe:ac:06:98:b2:68:95:38:d0:7c:28:6c:
         0b:04:dc:6a:6a:f1:47:ab:06:14:92:11:6a:44:4c:f5:04:2f:
         c1:9d:9e:22:43:f7:26:b2:64:5e:d0:9b:c5:b7:82:4f:c8:09:
         92:6d:74:10:63:4d:fe:d6:70:32:f7:d5:29:e3:3f:2a:40:c4:
         2c:5e:f9:d0:34:a4:5c:86:13:7a:d0:f3:bc:64:db:c8:27:a7:
         cd:43:af:8b:63:37:c8:3e:11:bf:12:d3:0c:4e:1d:58:f6:a3:
         dd:ae:43:45:df:78:6d:16:3c:f7:08:06:27:df:95:d0:5e:96:
         bc:db:dc:f7:a8:b0:1c:cc:74:40:a1:f7:8b:c6:90:b5:bb:94:
         10:a3:48:9d:15:23:23:4b:81:50:fb:15:1c:cd:2d:44:68:bf:
         43:d1:c0:9a:34:ab:a2:77:e8:b8:74:b5:8e:d5:f6:27:82:7d:
         47:b3:c9:ce:c6:35:25:96:48:fa:90:9c:7a:92:af:59:d6:e4:
         a8:d2:86:35:90:bf:3f:5f:43:53:4b:5c:fe:43:f0:19:86:b1:
         5f:29:87:a2:f6:89:dc:49:01:97:24:2c:df:53:45:72:90:a1:
         10:5a:3e:d8:91:bc:8d:fc:5d:9c:ce:62:01:1e:b9:42:08:ff:
         88:97:ea:f7:4e:a4:a8:bb
-----BEGIN CERTIFICATE-----
MIIGwjCCBKqgAwIBAgIJAMc4dNg/EiwEMA0GCSqGSIb3DQEBCwUAMIGDMQswCQYD
VQQGEwJJVDERMA8GA1UECAwIRmxvcmVuY2UxFTATBgNVBAoMDE9yZ2FuaXphdGlv
bjENMAsGA1UECwwEVW5pdDEVMBMGA1UEAwwMT3JnYW5pemF0aW9uMSQwIgYJKoZI
hvcNAQkBFhVjYUBvcmdhbml6YXRpb24uZW1haWwwHhcNMTkxMjEzMTAyMDM4WhcN
MjIwMzE3MTAyMDM4WjB6MQswCQYDVQQGEwJJVDERMA8GA1UECAwIRmxvcmVuY2Ux
FTATBgNVBAoMDE9yZ2FuaXphdGlvbjENMAsGA1UECwwEVW5pdDEQMA4GA1UEAwwH
aW90b2JzZjEgMB4GCSqGSIb3DQEJARYReW91ckBzZXJ2ZXIuZW1haWwwggIiMA0G
CSqGSIb3DQEBAQUAA4ICDwAwggIKAoICAQDdpsBi1Ar6U8RVTMbmTpaMCo0ZILxA
zugHvgbiMUdkkpAG8f/d9A7L6X2TgCr3vd3jqbPxx1pEj5eNsXdBLcXPIyqbDAtt
06/hquFVTrLDNz3qK1tZ0nQAY00QXRvOsLcgldSnJIXrOLHS8zZ5jW2K8Ge5Teug
ECWND2BX14eLSyZdJhTk/HvdVmYJ6VXAk6SAF8xtdqg6MxY4yp8WY6g6ScbFhUye
ZGIAat1vMvuP8Lg7rD/CQA25KPqQlsiU9DLYng4D97gGXptL2T0DiY1OjYEDMCda
6BBBUoZCZZgUOlBM/lmZSDBxQYBfUkfkG3iqLzVVKis+eA3r51yO59qJqUrxHWfV
uuuVZEcsp1YI61HLqTVQ3bkdThAclvzlRmkuCw7v36jzfjFw0WDAUpFgaUNdz9L6
kCroen4tVkD2rATh1KymkkwU6pTmKpzcuPhRQj2ZDSkfsfagTspMlAqnjaipkNZb
kEci9MkolwlhW9Ils9fLdJEbgAoK6K0B35SfMO4S7bf4TtQ6rKIFh+o0DDKEEkpl
sz52ar0jM/TaaTAsVJEwih3MW0XXSi4rrR9mTQFOuacJduIajihRrqw34GlPfwu+
iFix59H0G/Hjbf/PungYYwYwLQPDOyfFDNvwI2NOMEJ28s2jQL8GZIJw/4mQRiJf
xEqpYYkvMtZRWQIDAQABo4IBPzCCATswHQYDVR0OBBYEFGI2I0SepVEWzCQ+z84K
rav/+w+8MIG4BgNVHSMEgbAwga2AFBTFqaDvXN25LTLhB8vEYTlA8Vv9oYGJpIGG
MIGDMQswCQYDVQQGEwJJVDERMA8GA1UECAwIRmxvcmVuY2UxFTATBgNVBAoMDE9y
Z2FuaXphdGlvbjENMAsGA1UECwwEVW5pdDEVMBMGA1UEAwwMT3JnYW5pemF0aW9u
MSQwIgYJKoZIhvcNAQkBFhVjYUBvcmdhbml6YXRpb24uZW1haWyCCQDHOHTYPxIs
AzAMBgNVHRMEBTADAQH/MDAGA1UdHwQpMCcwJaAjoCGGH2h0dHA6Ly9kYXNoYm9h
cmQvZXhhbXBsZV9jYS5jcmwwCwYDVR0PBAQDAgXgMBIGA1UdEQQLMAmCB2lvdG9i
c2YwDQYJKoZIhvcNAQELBQADggIBACxzWQvWIs7PNqNNncw+iuRYZLhblX+KqYPv
VVZjGkiODVEQlEVgJ/ECwWMGObkylqxTPY5qYEA6jwGzTkq2m/0Rkc+lCc+BHKzH
834eYT6neMH8RjcJZN5sIOCDM8syyUtVY4o3JMweVwA2JaJxRq7DGqhQwFuwdAiS
xc21tGqYulYVAfPlN0cfYtPISbe7djan6KSBGjYhXbTI64nPI2PtyPbipGlpm1gM
pOK2BV142/ScglhGhikJkQ2N7itCVRuxfr4dt6y4Pqpp0JJCvyO/kCaefRcvNuvZ
vu5Z5b8RUYisTAmNLtAV5NkWwY1TGrEeQX+X+A2K5iG9XL6JjYvAwf6sBpiyaJU4
0HwobAsE3Gpq8UerBhSSEWpETPUEL8GdniJD9yayZF7Qm8W3gk/ICZJtdBBjTf7W
cDL31SnjPypAxCxe+dA0pFyGE3rQ87xk28gnp81Dr4tjN8g+Eb8S0wxOHVj2o92u
Q0XfeG0WPPcIBiffldBelrzb3PeosBzMdECh94vGkLW7lBCjSJ0VIyNLgVD7FRzN
LURov0PRwJo0q6J36Lh0tY7V9ieCfUezyc7GNSWWSPqQnHqSr1nW5KjShjWQvz9f
Q1NLXP5D8BmGsV8ph6L2idxJAZckLN9TRXKQoRBaPtiRvI38XZzOYgEeuUII/4iX
6vdOpKi7
-----END CERTIFICATE-----
