Certificate:
    Data:
        Version: 3 (0x2)
        Serial Number:
            c7:38:74:d8:3f:12:2c:03
    Signature Algorithm: sha256WithRSAEncryption
        Issuer: C=IT, ST=Florence, O=Organization, OU=Unit, CN=Organization/emailAddress=ca@organization.email
        Validity
            Not Before: Dec 13 10:19:59 2019 GMT
            Not After : Apr 29 10:19:59 2047 GMT
        Subject: C=IT, ST=Florence, O=Organization, OU=Unit, CN=Organization/emailAddress=ca@organization.email
        Subject Public Key Info:
            Public Key Algorithm: rsaEncryption
                Public-Key: (4096 bit)
                Modulus:
                    00:b4:a7:81:8c:44:ee:6d:40:1e:61:35:02:dd:19:
                    86:de:f7:f7:4b:4b:6a:e7:e5:7b:e0:28:f7:0f:7e:
                    bd:06:fb:6e:a2:db:5a:a6:71:cc:9a:73:74:b5:57:
                    63:8f:f0:28:88:1e:bc:8a:8e:3d:e6:9b:fd:04:20:
                    db:9c:09:88:78:8d:4e:19:63:99:4a:25:05:bf:fc:
                    11:53:09:fc:28:3b:f6:c3:97:f2:b5:70:fd:7d:8f:
                    fc:cd:6b:65:c8:d7:8c:ae:73:13:22:07:72:a0:88:
                    7d:5d:f3:0e:f9:13:37:10:b1:33:3b:86:b1:f1:82:
                    fe:3a:6c:5c:03:35:52:76:8f:67:6d:f9:6f:fb:61:
                    6f:dc:0d:8d:70:50:68:c3:cc:b4:55:12:23:83:5b:
                    2a:57:11:14:82:e3:b8:c5:42:9e:4b:8d:c3:5f:26:
                    bc:74:b5:fa:54:33:a0:df:89:39:f7:c3:54:c0:47:
                    bb:ea:71:68:3e:8b:db:4f:f6:3e:21:b2:89:9c:44:
                    0c:04:c4:39:84:a7:76:61:a5:3e:29:de:1d:ac:62:
                    51:70:06:64:a9:2e:d1:99:0a:96:ec:64:45:3a:66:
                    a5:b2:21:d8:41:ea:19:a0:b2:37:38:f4:6f:b2:ca:
                    b1:19:cf:02:a3:45:a6:41:91:9f:5e:e5:8c:a5:ee:
                    b0:00:77:e5:64:d6:53:0d:77:da:3f:77:5a:61:0d:
                    d7:89:e0:12:38:a7:aa:d7:30:13:5c:44:86:01:d8:
                    b5:3e:90:b1:70:52:84:b9:ae:ee:f6:f7:00:77:e0:
                    47:94:59:bf:67:f4:bc:90:1c:d0:b2:e3:5d:8c:45:
                    62:9e:0e:c3:fe:5e:d6:63:94:1c:50:a7:04:6a:e1:
                    b0:de:f0:7e:29:62:54:d3:43:be:02:f5:a6:5f:0f:
                    d5:f9:5e:ce:ca:12:3d:48:f6:eb:22:24:fb:ff:a1:
                    ca:cc:83:5b:62:c8:5a:0a:28:f3:6e:65:58:41:7f:
                    8e:f6:87:cb:18:df:cd:a9:46:12:e6:9e:a1:b9:a1:
                    14:8d:d1:57:68:71:70:df:58:81:c6:63:75:06:d4:
                    95:a2:34:52:66:52:e4:f4:72:e6:98:0c:9c:7e:fe:
                    27:f1:dc:b9:ab:cc:7a:95:69:f6:e0:13:26:d3:04:
                    80:19:99:69:b4:7d:fc:af:3c:42:52:e9:4b:6d:61:
                    d1:6c:be:69:7d:46:2a:93:39:26:c3:7c:c4:5a:a7:
                    2f:ee:30:b0:83:cf:44:23:85:a7:90:9b:cd:17:76:
                    a0:94:13:00:bd:0c:d6:cb:5f:f7:31:6b:58:9f:76:
                    ad:31:24:81:54:65:fc:f1:c9:31:69:d2:18:d0:37:
                    e5:e5:85
                Exponent: 65537 (0x10001)
        X509v3 extensions:
            X509v3 Subject Key Identifier: 
                14:C5:A9:A0:EF:5C:DD:B9:2D:32:E1:07:CB:C4:61:39:40:F1:5B:FD
            X509v3 Authority Key Identifier: 
                keyid:14:C5:A9:A0:EF:5C:DD:B9:2D:32:E1:07:CB:C4:61:39:40:F1:5B:FD
                DirName:/C=IT/ST=Florence/O=Organization/OU=Unit/CN=Organization/emailAddress=ca@organization.email
                serial:C7:38:74:D8:3F:12:2C:03

            X509v3 Basic Constraints: 
                CA:TRUE
            X509v3 CRL Distribution Points: 

                Full Name:
                  URI:http://dashboard/example_ca.crl

    Signature Algorithm: sha256WithRSAEncryption
         6b:c2:9f:e3:e1:24:b6:24:dd:67:a1:40:b0:33:b8:0b:64:db:
         0f:71:24:2f:f3:9a:df:70:78:d6:aa:3f:bb:d4:b6:e9:99:79:
         ea:f6:71:51:b0:40:bb:77:db:c0:5c:e5:d6:40:02:4b:9f:4a:
         53:3b:1a:24:4e:e0:f8:4e:e4:16:94:6b:91:e2:d2:76:8f:0a:
         77:e8:99:2f:7f:17:b2:30:2a:9b:2f:aa:79:a6:1f:68:29:00:
         3b:39:78:44:18:7f:9b:39:47:fa:f0:84:48:01:c7:db:41:1f:
         0e:88:34:8d:2e:b6:68:7f:b9:a4:c4:ef:92:86:c8:1d:c3:30:
         44:67:7a:86:b0:c6:21:6b:d2:15:ef:ba:97:cb:cf:70:0c:78:
         f4:20:c2:2d:98:64:65:8d:22:76:66:f9:33:41:76:32:38:49:
         ed:25:1f:96:ad:e9:47:6a:c2:72:6b:2e:a9:e7:e3:d8:00:70:
         af:c6:48:f7:bf:62:77:ef:b8:48:ca:db:32:f2:19:36:4d:d2:
         99:53:8a:b3:f7:46:f6:ca:9a:91:6d:40:c2:96:db:af:52:4d:
         a9:18:c7:67:d6:9a:e0:14:13:44:60:9a:36:8d:89:f0:46:6f:
         68:2f:69:2e:bb:f0:89:18:5e:7b:aa:4a:41:c2:cd:37:67:26:
         5b:59:7e:c1:39:6f:53:50:bd:0a:27:dc:a3:62:49:37:47:b0:
         6e:b5:15:e7:cc:0b:2c:07:67:60:36:d9:59:40:0a:db:97:65:
         17:54:9d:13:6d:6b:4e:f0:04:49:4c:dd:80:e3:74:b9:ff:fb:
         5b:91:ef:1f:2b:4d:0d:73:43:09:e6:1d:ea:14:86:61:3d:df:
         35:35:a8:6b:3d:d9:85:91:d1:63:72:a3:89:54:95:bd:31:ef:
         b7:2d:f1:02:29:3a:4b:c8:39:7f:37:96:ff:48:1c:33:98:13:
         96:dc:a4:8b:24:ff:39:86:4d:3c:cd:0a:bc:2e:8d:97:bf:92:
         e2:01:3f:96:a5:6e:a4:2f:85:92:99:4d:49:2e:21:1c:69:29:
         e9:fb:b4:4d:8c:38:42:5c:3c:4e:c0:1f:6f:44:0b:3c:3b:97:
         80:69:2d:9c:0a:21:a7:c6:b7:41:02:dd:e0:89:77:72:36:a2:
         a9:8a:0b:0d:a2:b5:a6:3b:78:5e:4f:76:5a:35:73:ad:4a:e6:
         ab:da:5b:e4:f1:37:82:42:ae:dd:97:54:37:a1:c1:78:c3:60:
         85:81:8c:ff:58:d0:ad:57:4f:bd:20:16:cd:3c:bf:6a:af:b4:
         6c:94:08:86:ad:8d:9f:0b:f6:af:2a:a3:0b:9e:60:79:df:77:
         b9:35:ec:82:d4:41:e2:85
-----BEGIN CERTIFICATE-----
MIIGqzCCBJOgAwIBAgIJAMc4dNg/EiwDMA0GCSqGSIb3DQEBCwUAMIGDMQswCQYD
VQQGEwJJVDERMA8GA1UECAwIRmxvcmVuY2UxFTATBgNVBAoMDE9yZ2FuaXphdGlv
bjENMAsGA1UECwwEVW5pdDEVMBMGA1UEAwwMT3JnYW5pemF0aW9uMSQwIgYJKoZI
hvcNAQkBFhVjYUBvcmdhbml6YXRpb24uZW1haWwwHhcNMTkxMjEzMTAxOTU5WhcN
NDcwNDI5MTAxOTU5WjCBgzELMAkGA1UEBhMCSVQxETAPBgNVBAgMCEZsb3JlbmNl
MRUwEwYDVQQKDAxPcmdhbml6YXRpb24xDTALBgNVBAsMBFVuaXQxFTATBgNVBAMM
DE9yZ2FuaXphdGlvbjEkMCIGCSqGSIb3DQEJARYVY2FAb3JnYW5pemF0aW9uLmVt
YWlsMIICIjANBgkqhkiG9w0BAQEFAAOCAg8AMIICCgKCAgEAtKeBjETubUAeYTUC
3RmG3vf3S0tq5+V74Cj3D369BvtuottapnHMmnN0tVdjj/AoiB68io495pv9BCDb
nAmIeI1OGWOZSiUFv/wRUwn8KDv2w5fytXD9fY/8zWtlyNeMrnMTIgdyoIh9XfMO
+RM3ELEzO4ax8YL+OmxcAzVSdo9nbflv+2Fv3A2NcFBow8y0VRIjg1sqVxEUguO4
xUKeS43DXya8dLX6VDOg34k598NUwEe76nFoPovbT/Y+IbKJnEQMBMQ5hKd2YaU+
Kd4drGJRcAZkqS7RmQqW7GRFOmalsiHYQeoZoLI3OPRvssqxGc8Co0WmQZGfXuWM
pe6wAHflZNZTDXfaP3daYQ3XieASOKeq1zATXESGAdi1PpCxcFKEua7u9vcAd+BH
lFm/Z/S8kBzQsuNdjEVing7D/l7WY5QcUKcEauGw3vB+KWJU00O+AvWmXw/V+V7O
yhI9SPbrIiT7/6HKzINbYshaCijzbmVYQX+O9ofLGN/NqUYS5p6huaEUjdFXaHFw
31iBxmN1BtSVojRSZlLk9HLmmAycfv4n8dy5q8x6lWn24BMm0wSAGZlptH38rzxC
UulLbWHRbL5pfUYqkzkmw3zEWqcv7jCwg89EI4WnkJvNF3aglBMAvQzWy1/3MWtY
n3atMSSBVGX88ckxadIY0Dfl5YUCAwEAAaOCAR4wggEaMB0GA1UdDgQWBBQUxamg
71zduS0y4QfLxGE5QPFb/TCBuAYDVR0jBIGwMIGtgBQUxamg71zduS0y4QfLxGE5
QPFb/aGBiaSBhjCBgzELMAkGA1UEBhMCSVQxETAPBgNVBAgMCEZsb3JlbmNlMRUw
EwYDVQQKDAxPcmdhbml6YXRpb24xDTALBgNVBAsMBFVuaXQxFTATBgNVBAMMDE9y
Z2FuaXphdGlvbjEkMCIGCSqGSIb3DQEJARYVY2FAb3JnYW5pemF0aW9uLmVtYWls
ggkAxzh02D8SLAMwDAYDVR0TBAUwAwEB/zAwBgNVHR8EKTAnMCWgI6Ahhh9odHRw
Oi8vZGFzaGJvYXJkL2V4YW1wbGVfY2EuY3JsMA0GCSqGSIb3DQEBCwUAA4ICAQBr
wp/j4SS2JN1noUCwM7gLZNsPcSQv85rfcHjWqj+71LbpmXnq9nFRsEC7d9vAXOXW
QAJLn0pTOxokTuD4TuQWlGuR4tJ2jwp36JkvfxeyMCqbL6p5ph9oKQA7OXhEGH+b
OUf68IRIAcfbQR8OiDSNLrZof7mkxO+ShsgdwzBEZ3qGsMYha9IV77qXy89wDHj0
IMItmGRljSJ2ZvkzQXYyOEntJR+WrelHasJyay6p5+PYAHCvxkj3v2J377hIytsy
8hk2TdKZU4qz90b2ypqRbUDCltuvUk2pGMdn1prgFBNEYJo2jYnwRm9oL2kuu/CJ
GF57qkpBws03ZyZbWX7BOW9TUL0KJ9yjYkk3R7ButRXnzAssB2dgNtlZQArbl2UX
VJ0TbWtO8ARJTN2A43S5//tbke8fK00Nc0MJ5h3qFIZhPd81NahrPdmFkdFjcqOJ
VJW9Me+3LfECKTpLyDl/N5b/SBwzmBOW3KSLJP85hk08zQq8Lo2Xv5LiAT+WpW6k
L4WSmU1JLiEcaSnp+7RNjDhCXDxOwB9vRAs8O5eAaS2cCiGnxrdBAt3giXdyNqKp
igsNorWmO3heT3ZaNXOtSuar2lvk8TeCQq7dl1Q3ocF4w2CFgYz/WNCtV0+9IBbN
PL9qr7RslAiGrY2fC/avKqMLnmB533e5NeyC1EHihQ==
-----END CERTIFICATE-----
